Certificate:
    Data:
        Version: 3 (0x2)
        Serial Number: 1 (0x1)
        Signature Algorithm: sha256WithRSAEncryption
        Issuer: C=US, ST=Denial, L=Example, O=Example, CN=Example
        Validity
            Not Before: Apr  8 14:37:01 2021 GMT
            Not After : Apr  8 14:37:01 2022 GMT
        Subject: C=US, ST=Denial, L=Example, O=Example, CN=example.com
        Subject Public Key Info:
            Public Key Algorithm: rsaEncryption
                RSA Public-Key: (2048 bit)
                Modulus:
                    00:b0:db:87:86:4a:28:d5:10:7a:eb:a1:f6:35:93:
                    fc:13:4f:1e:0d:71:44:b4:a0:98:73:be:32:c4:4a:
                    02:4b:60:73:2d:32:4d:31:8c:63:7d:c3:c8:73:d8:
                    17:fc:74:23:5e:fd:02:1b:4e:5e:10:1d:de:90:e3:
                    a1:b4:e9:d9:36:9a:49:ae:9e:75:83:7c:60:2d:03:
                    35:b2:9b:04:02:67:7a:3e:7a:c5:8f:55:45:d3:4f:
                    f7:4a:ab:30:5e:c8:6c:6d:ea:41:7e:e1:95:98:de:
                    75:2c:ae:23:80:40:13:92:6e:e2:a4:ec:b7:65:0f:
                    0d:9e:5d:5f:32:95:6c:53:52:b7:e1:06:44:54:7d:
                    ea:51:8f:1f:78:8e:e9:01:d4:1d:97:7b:68:46:b3:
                    d9:98:5b:93:e4:05:2e:63:07:da:b1:c7:44:79:08:
                    34:32:8c:17:9f:bd:77:ba:cf:4f:07:94:92:27:21:
                    d8:f9:ee:67:ba:30:67:c7:35:f3:e5:10:4b:b6:fc:
                    7b:16:a7:0b:40:30:7d:55:a5:b2:2a:64:b8:fd:40:
                    d3:26:c5:b8:01:00:f8:57:01:b9:b4:2a:c9:af:70:
                    35:c4:6c:46:04:ad:60:2c:ac:37:67:4b:21:17:cb:
                    9e:45:43:49:fe:85:56:16:20:ff:91:0b:c5:ca:2d:
                    f1:79
                Exponent: 65537 (0x10001)
        X509v3 extensions:
            X509v3 Basic Constraints: 
                CA:FALSE
            Netscape Comment: 
                OpenSSL Generated Certificate
            X509v3 Subject Key Identifier: 
                FF:AA:18:26:6C:82:27:AF:97:32:51:97:12:EC:7E:B0:3C:49:3F:F4
            X509v3 Authority Key Identifier: 
                keyid:31:9A:00:9C:34:EF:1D:1E:8C:B5:43:ED:25:52:CC:BB:5A:18:88:FD

    Signature Algorithm: sha256WithRSAEncryption
         44:a6:ea:52:88:04:f8:84:40:cd:8a:fc:1f:f9:34:cf:9c:19:
         0a:69:b1:be:83:20:9c:15:ef:ad:e1:63:6b:d5:b1:49:50:7e:
         ce:b9:d7:42:1f:a5:7e:99:e2:f9:de:b5:27:95:bb:b7:9e:9b:
         7a:bb:1c:23:fe:23:26:57:49:e1:c0:af:39:bb:85:cd:98:bc:
         9b:cc:9a:92:93:06:7a:9c:0a:ab:9f:9a:b4:59:85:64:5b:41:
         f8:06:4e:43:01:52:5c:1a:62:8f:36:e9:d1:18:c1:29:07:b6:
         91:16:ea:16:a3:55:d7:4a:99:5d:3a:b2:cf:cb:99:b3:1c:24:
         17:8c:ac:18:94:73:dd:7d:6c:68:0e:b9:47:82:19:ad:80:ff:
         0b:45:a0:a6:70:f0:37:09:4d:7e:f8:6c:2c:ca:d4:4f:4a:d6:
         e7:b7:8a:56:af:b1:7e:84:71:3e:b5:5c:6b:a6:f4:3b:78:5c:
         69:d3:02:95:25:d8:94:52:1e:9f:1f:5f:a2:99:2f:8a:ce:91:
         6b:97:e7:77:19:e3:62:d1:fe:63:1e:e0:2c:86:7c:04:e5:af:
         63:82:14:08:1b:37:82:cd:96:b4:e0:5a:9c:24:11:75:bd:f7:
         15:a2:22:2a:64:b4:6d:ca:2c:18:7a:36:18:9d:17:b5:2b:40:
         4f:cf:ec:d9
-----BEGIN CERTIFICATE-----
MIIDojCCAoqgAwIBAgIBATANBgkqhkiG9w0BAQsFADBUMQswCQYDVQQGEwJVUzEP
MA0GA1UECAwGRGVuaWFsMRAwDgYDVQQHDAdFeGFtcGxlMRAwDgYDVQQKDAdFeGFt
cGxlMRAwDgYDVQQDDAdFeGFtcGxlMB4XDTIxMDQwODE0MzcwMVoXDTIyMDQwODE0
MzcwMVowWDELMAkGA1UEBhMCVVMxDzANBgNVBAgMBkRlbmlhbDEQMA4GA1UEBwwH
RXhhbXBsZTEQMA4GA1UECgwHRXhhbXBsZTEUMBIGA1UEAwwLZXhhbXBsZS5jb20w
ggEiMA0GCSqGSIb3DQEBAQUAA4IBDwAwggEKAoIBAQCw24eGSijVEHrrofY1k/wT
Tx4NcUS0oJhzvjLESgJLYHMtMk0xjGN9w8hz2Bf8dCNe/QIbTl4QHd6Q46G06dk2
mkmunnWDfGAtAzWymwQCZ3o+esWPVUXTT/dKqzBeyGxt6kF+4ZWY3nUsriOAQBOS
buKk7LdlDw2eXV8ylWxTUrfhBkRUfepRjx94jukB1B2Xe2hGs9mYW5PkBS5jB9qx
x0R5CDQyjBefvXe6z08HlJInIdj57me6MGfHNfPlEEu2/HsWpwtAMH1VpbIqZLj9
QNMmxbgBAPhXAbm0KsmvcDXEbEYErWAsrDdnSyEXy55FQ0n+hVYWIP+RC8XKLfF5
AgMBAAGjezB5MAkGA1UdEwQCMAAwLAYJYIZIAYb4QgENBB8WHU9wZW5TU0wgR2Vu
ZXJhdGVkIENlcnRpZmljYXRlMB0GA1UdDgQWBBT/qhgmbIInr5cyUZcS7H6wPEk/
9DAfBgNVHSMEGDAWgBQxmgCcNO8dHoy1Q+0lUsy7WhiI/TANBgkqhkiG9w0BAQsF
AAOCAQEARKbqUogE+IRAzYr8H/k0z5wZCmmxvoMgnBXvreFja9WxSVB+zrnXQh+l
fpni+d61J5W7t56berscI/4jJldJ4cCvObuFzZi8m8yakpMGepwKq5+atFmFZFtB
+AZOQwFSXBpijzbp0RjBKQe2kRbqFqNV10qZXTqyz8uZsxwkF4ysGJRz3X1saA65
R4IZrYD/C0WgpnDwNwlNfvhsLMrUT0rW57eKVq+xfoRxPrVca6b0O3hcadMClSXY
lFIenx9fopkvis6Ra5fndxnjYtH+Yx7gLIZ8BOWvY4IUCBs3gs2WtOBanCQRdb33
FaIiKmS0bcosGHo2GJ0XtStAT8/s2Q==
-----END CERTIFICATE-----
