Certificate:
    Data:
        Version: 3 (0x2)
        Serial Number: 0 (0x0)
        Signature Algorithm: sha256WithRSAEncryption
        Issuer: C=US, ST=Denial, L=Example, O=Example, CN=Example
        Validity
            Not Before: Apr  7 21:24:03 2021 GMT
            Not After : Apr  7 21:24:03 2022 GMT
        Subject: C=US, ST=Denial, L=Example, O=Example, CN=Example
        Subject Public Key Info:
            Public Key Algorithm: rsaEncryption
                RSA Public-Key: (2048 bit)
                Modulus:
                    00:c7:dc:16:e8:5e:fb:13:f9:9b:db:dd:43:73:51:
                    43:5b:e4:e5:b3:85:7b:2f:51:76:57:fe:c3:32:7e:
                    a9:ef:2b:d0:ee:00:c0:7e:a1:93:71:bc:1b:82:50:
                    70:92:55:ea:a7:51:3b:b7:e4:27:80:56:4a:4c:7e:
                    d7:24:a7:75:d6:bf:da:cf:df:3e:d2:d7:0e:9f:12:
                    bb:e9:77:35:11:02:51:30:5c:fc:c9:63:e6:44:cf:
                    39:da:eb:2b:dc:25:e5:80:33:4a:af:86:f3:c3:1e:
                    2e:0c:56:02:7a:93:72:3d:8e:ff:55:7d:9b:80:f8:
                    7e:d2:6f:c0:94:80:95:c1:16:76:e9:4e:6d:b4:32:
                    24:2e:a9:d7:d1:cc:70:90:86:d6:22:dc:b1:2b:ed:
                    d1:c4:ef:1e:a3:8d:ab:02:03:a0:2c:3d:26:61:29:
                    83:33:10:d0:53:df:6e:82:41:b2:18:e6:1a:29:ae:
                    8c:cf:70:bb:79:49:be:b1:a8:1e:d1:81:05:36:d0:
                    90:e5:94:3e:3f:42:86:7c:9a:17:35:f6:ff:a6:a4:
                    29:66:5d:4b:a0:89:30:0d:dc:de:aa:e8:db:b6:f9:
                    c7:e4:8f:66:57:8e:b3:e3:d6:ea:d8:39:e1:3a:7c:
                    6c:4d:9f:66:73:5e:58:0a:9f:2a:91:5b:2f:d6:84:
                    0c:5f
                Exponent: 65537 (0x10001)
        X509v3 extensions:
            X509v3 Basic Constraints: 
                CA:FALSE
            Netscape Comment: 
                OpenSSL Generated Certificate
            X509v3 Subject Key Identifier: 
                80:E4:15:0F:E7:62:78:13:B8:C2:49:9F:62:6C:31:C0:AE:BC:06:C8
            X509v3 Authority Key Identifier: 
                keyid:31:9A:00:9C:34:EF:1D:1E:8C:B5:43:ED:25:52:CC:BB:5A:18:88:FD

    Signature Algorithm: sha256WithRSAEncryption
         0a:ed:ad:71:f4:15:b6:93:b7:7d:35:6f:5a:9f:d1:9c:0e:e3:
         dc:49:5f:52:86:67:7c:7d:41:16:2f:11:9f:c8:4a:e2:82:72:
         ae:a6:30:1f:0d:40:dd:cd:46:5e:df:31:38:1a:f5:e0:d2:b1:
         99:14:7d:6c:9b:2d:4d:ff:a5:ea:f4:c5:a4:7e:32:0f:8f:fc:
         dd:d7:de:05:c9:b2:c6:9a:ae:68:58:3a:fa:80:96:4f:9a:f9:
         e7:bc:44:d8:c3:54:d1:8a:ba:a2:b6:40:4e:fd:dc:8b:a4:b1:
         c7:06:6a:8a:82:67:43:34:f4:25:44:f3:6d:3d:ef:9d:d8:b4:
         13:3d:a5:db:bb:f2:f6:d9:0d:6f:6f:f8:9c:c5:c7:24:40:7e:
         bc:7b:3c:a4:54:2a:59:cd:9e:71:3d:24:72:b4:df:bf:40:d6:
         6d:5a:f8:29:58:39:65:53:c7:12:6f:8e:a6:e9:39:31:ae:70:
         b0:6d:8c:48:db:ac:dd:02:5d:0c:0a:73:ca:10:f0:67:20:a5:
         32:f3:56:bb:75:f3:b9:b8:42:ee:c2:2b:af:5b:5c:bf:15:b4:
         3e:f1:44:25:7f:51:a0:aa:b2:21:05:59:ed:3d:70:9f:d5:54:
         2a:8b:4d:8c:d1:6c:0d:74:ab:80:45:1c:0f:fb:51:a9:cd:69:
         4e:65:c4:e5
-----BEGIN CERTIFICATE-----
MIIDnjCCAoagAwIBAgIBADANBgkqhkiG9w0BAQsFADBUMQswCQYDVQQGEwJVUzEP
MA0GA1UECAwGRGVuaWFsMRAwDgYDVQQHDAdFeGFtcGxlMRAwDgYDVQQKDAdFeGFt
cGxlMRAwDgYDVQQDDAdFeGFtcGxlMB4XDTIxMDQwNzIxMjQwM1oXDTIyMDQwNzIx
MjQwM1owVDELMAkGA1UEBhMCVVMxDzANBgNVBAgMBkRlbmlhbDEQMA4GA1UEBwwH
RXhhbXBsZTEQMA4GA1UECgwHRXhhbXBsZTEQMA4GA1UEAwwHRXhhbXBsZTCCASIw
DQYJKoZIhvcNAQEBBQADggEPADCCAQoCggEBAMfcFuhe+xP5m9vdQ3NRQ1vk5bOF
ey9Rdlf+wzJ+qe8r0O4AwH6hk3G8G4JQcJJV6qdRO7fkJ4BWSkx+1ySndda/2s/f
PtLXDp8Su+l3NRECUTBc/Mlj5kTPOdrrK9wl5YAzSq+G88MeLgxWAnqTcj2O/1V9
m4D4ftJvwJSAlcEWdulObbQyJC6p19HMcJCG1iLcsSvt0cTvHqONqwIDoCw9JmEp
gzMQ0FPfboJBshjmGimujM9wu3lJvrGoHtGBBTbQkOWUPj9ChnyaFzX2/6akKWZd
S6CJMA3c3qro27b5x+SPZleOs+PW6tg54Tp8bE2fZnNeWAqfKpFbL9aEDF8CAwEA
AaN7MHkwCQYDVR0TBAIwADAsBglghkgBhvhCAQ0EHxYdT3BlblNTTCBHZW5lcmF0
ZWQgQ2VydGlmaWNhdGUwHQYDVR0OBBYEFIDkFQ/nYngTuMJJn2JsMcCuvAbIMB8G
A1UdIwQYMBaAFDGaAJw07x0ejLVD7SVSzLtaGIj9MA0GCSqGSIb3DQEBCwUAA4IB
AQAK7a1x9BW2k7d9NW9an9GcDuPcSV9Shmd8fUEWLxGfyErignKupjAfDUDdzUZe
3zE4GvXg0rGZFH1smy1N/6Xq9MWkfjIPj/zd194FybLGmq5oWDr6gJZPmvnnvETY
w1TRirqitkBO/dyLpLHHBmqKgmdDNPQlRPNtPe+d2LQTPaXbu/L22Q1vb/icxcck
QH68ezykVCpZzZ5xPSRytN+/QNZtWvgpWDllU8cSb46m6TkxrnCwbYxI26zdAl0M
CnPKEPBnIKUy81a7dfO5uELuwiuvW1y/FbQ+8UQlf1GgqrIhBVntPXCf1VQqi02M
0WwNdKuARRwP+1GpzWlOZcTl
-----END CERTIFICATE-----
